target datalayout = "e-m:e-p270:32:32-p271:32:32-p272:64:64-i64:64-i128:128-f80:128-n8:16:32:64-S128"
target triple = "x86_64-pc-linux-gnu"

; Function Attrs: nounwind uwtable
define internal i32 @Abc_LitNot(i32 noundef %0) #0 {
  %2 = alloca i32, align 4
  store i32 %0, ptr %2, align 4
  %3 = load i32, ptr %2, align 4
  %4 = xor i32 %3, 1
  ret i32 %4
}

; Function Attrs: nounwind uwtable
define void @Gia_ManDualAnd2(ptr noundef %0, ptr noundef %1, ptr noundef %2, ptr noundef %3) #0 {
  %5 = alloca ptr, align 8
  %6 = alloca ptr, align 8
  %7 = alloca ptr, align 8
  %8 = alloca ptr, align 8
  %9 = alloca i32, align 4
  %10 = alloca i32, align 4
  %11 = alloca i32, align 4
  store ptr %0, ptr %5, align 8
  store ptr %1, ptr %6, align 8
  store ptr %2, ptr %7, align 8
  store ptr %3, ptr %8, align 8
  %12 = load ptr, ptr %5, align 8
  %13 = load ptr, ptr %6, align 8
  %14 = getelementptr inbounds i32, ptr %13, i64 0
  %15 = load i32, ptr %14, align 4
  %16 = call i32 @Abc_LitNot(i32 noundef %15)
  %17 = load ptr, ptr %6, align 8
  %18 = getelementptr inbounds i32, ptr %17, i64 1
  %19 = load i32, ptr %18, align 4
  %20 = call i32 @Abc_LitNot(i32 noundef %19)
  %21 = call i32 @Gia_ManHashAnd(ptr noundef %12, i32 noundef %16, i32 noundef %20)
  store i32 %21, ptr %9, align 4
  %22 = load ptr, ptr %5, align 8
  %23 = load ptr, ptr %7, align 8
  %24 = getelementptr inbounds i32, ptr %23, i64 0
  %25 = load i32, ptr %24, align 4
  %26 = call i32 @Abc_LitNot(i32 noundef %25)
  %27 = load ptr, ptr %7, align 8
  %28 = getelementptr inbounds i32, ptr %27, i64 1
  %29 = load i32, ptr %28, align 4
  %30 = call i32 @Abc_LitNot(i32 noundef %29)
  %31 = call i32 @Gia_ManHashAnd(ptr noundef %22, i32 noundef %26, i32 noundef %30)
  store i32 %31, ptr %10, align 4
  %32 = load ptr, ptr %5, align 8
  %33 = load i32, ptr %9, align 4
  %34 = load i32, ptr %10, align 4
  %35 = call i32 @Gia_ManHashOr(ptr noundef %32, i32 noundef %33, i32 noundef %34)
  store i32 %35, ptr %11, align 4
  %36 = load ptr, ptr %5, align 8
  %37 = load ptr, ptr %6, align 8
  %38 = getelementptr inbounds i32, ptr %37, i64 0
  %39 = load i32, ptr %38, align 4
  %40 = load ptr, ptr %7, align 8
  %41 = getelementptr inbounds i32, ptr %40, i64 0
  %42 = load i32, ptr %41, align 4
  %43 = call i32 @Gia_ManHashAnd(ptr noundef %36, i32 noundef %39, i32 noundef %42)
  %44 = load ptr, ptr %8, align 8
  %45 = getelementptr inbounds i32, ptr %44, i64 0
  store i32 %43, ptr %45, align 4
  %46 = load ptr, ptr %5, align 8
  %47 = load ptr, ptr %5, align 8
  %48 = load ptr, ptr %6, align 8
  %49 = getelementptr inbounds i32, ptr %48, i64 1
  %50 = load i32, ptr %49, align 4
  %51 = load ptr, ptr %7, align 8
  %52 = getelementptr inbounds i32, ptr %51, i64 1
  %53 = load i32, ptr %52, align 4
  %54 = call i32 @Gia_ManHashOr(ptr noundef %47, i32 noundef %50, i32 noundef %53)
  %55 = load i32, ptr %11, align 4
  %56 = call i32 @Abc_LitNot(i32 noundef %55)
  %57 = call i32 @Gia_ManHashAnd(ptr noundef %46, i32 noundef %54, i32 noundef %56)
  %58 = load ptr, ptr %8, align 8
  %59 = getelementptr inbounds i32, ptr %58, i64 1
  store i32 %57, ptr %59, align 4
  ret void
}