; Function Attrs: nounwind uwtable
define void @Gia_ManDualAnd2(ptr noundef %0, ptr noundef readonly captures(none) %1, ptr noundef readonly captures(none) %2, ptr noundef writeonly captures(none) initializes((0, 8)) %3) local_unnamed_addr #0 {
  %5 = load i32, ptr %1, align 4
  %6 = xor i32 %5, 1
  %7 = getelementptr inbounds nuw i8, ptr %1, i64 4
  %8 = load i32, ptr %7, align 4
  %9 = xor i32 %8, 1
  %10 = tail call i32 @Gia_ManHashAnd(ptr noundef %0, i32 noundef %6, i32 noundef %9) #18
  %11 = load i32, ptr %2, align 4
  %12 = xor i32 %11, 1
  %13 = getelementptr inbounds nuw i8, ptr %2, i64 4
  %14 = load i32, ptr %13, align 4
  %15 = xor i32 %14, 1
  %16 = tail call i32 @Gia_ManHashAnd(ptr noundef %0, i32 noundef %12, i32 noundef %15) #18
  %17 = tail call i32 @Gia_ManHashOr(ptr noundef %0, i32 noundef %10, i32 noundef %16) #18
  %18 = load i32, ptr %1, align 4
  %19 = load i32, ptr %2, align 4
  %20 = tail call i32 @Gia_ManHashAnd(ptr noundef %0, i32 noundef %18, i32 noundef %19) #18
  store i32 %20, ptr %3, align 4
  %21 = load i32, ptr %7, align 4
  %22 = load i32, ptr %13, align 4
  %23 = tail call i32 @Gia_ManHashOr(ptr noundef %0, i32 noundef %21, i32 noundef %22) #18
  %24 = xor i32 %17, 1
  %25 = tail call i32 @Gia_ManHashAnd(ptr noundef %0, i32 noundef %23, i32 noundef %24) #18
  %26 = getelementptr inbounds nuw i8, ptr %3, i64 4
  store i32 %25, ptr %26, align 4
  ret void
}